target datalayout = "e-m:e-p270:32:32-p271:32:32-p272:64:64-i64:64-i128:128-f80:128-n8:16:32:64-S128"
target triple = "x86_64-pc-linux-gnu"

%struct.Cut_ParamsStruct_t_ = type { i32, i32, i32, i32, i32, i32, i32, i32, i32, i32, i32, i32, i32, i32, i32, i32, i32, i32, i32, i32 }
%struct.Abc_Ntk_t_ = type { i32, i32, ptr, ptr, ptr, ptr, ptr, ptr, ptr, ptr, ptr, ptr, ptr, [11 x i32], i32, i32, i32, i32, ptr, i32, ptr, ptr, i32, i32, i32, double, i32, %struct.Vec_Int_t_, ptr, ptr, ptr, ptr, ptr, float, i32, ptr, ptr, ptr, ptr, ptr, ptr, ptr, ptr, ptr, ptr, ptr, ptr, ptr, ptr, ptr, ptr, ptr, ptr, ptr, ptr, ptr, ptr }
%struct.Vec_Int_t_ = type { i32, i32, ptr }
%struct.Abc_Obj_t_ = type { ptr, ptr, i32, i32, %struct.Vec_Int_t_, %struct.Vec_Int_t_, %union.anon, %union.anon.0 }
%union.anon = type { ptr }
%union.anon.0 = type { ptr }
%struct.Vec_Ptr_t_ = type { i32, i32, ptr }

@Abc_NtkStartCutManForRewrite.pParams = internal global ptr @Abc_NtkStartCutManForRewrite.Params, align 8

; Function Attrs: inlinehint nounwind uwtable
define internal ptr @Vec_PtrEntry(ptr noundef %0, i32 noundef %1) #3 {
  %3 = alloca ptr, align 8
  %4 = alloca i32, align 4
  store ptr %0, ptr %3, align 8, !tbaa !72
  store i32 %1, ptr %4, align 4, !tbaa !10
  %5 = load ptr, ptr %3, align 8, !tbaa !72
  %6 = getelementptr inbounds nuw %struct.Vec_Ptr_t_, ptr %5, i32 0, i32 2
  %7 = load ptr, ptr %6, align 8, !tbaa !87
  %8 = load i32, ptr %4, align 4, !tbaa !10
  %9 = sext i32 %8 to i64
  %10 = getelementptr inbounds ptr, ptr %7, i64 %9
  %11 = load ptr, ptr %10, align 8, !tbaa !88
  ret ptr %11
}

; Function Attrs: inlinehint nounwind uwtable
define internal i32 @Vec_PtrSize(ptr noundef %0) #3 {
  %2 = alloca ptr, align 8
  store ptr %0, ptr %2, align 8, !tbaa !72
  %3 = load ptr, ptr %2, align 8, !tbaa !72
  %4 = getelementptr inbounds nuw %struct.Vec_Ptr_t_, ptr %3, i32 0, i32 1
  %5 = load i32, ptr %4, align 4, !tbaa !73
  ret i32 %5
}

; Function Attrs: inlinehint nounwind uwtable
define internal i32 @Abc_ObjFanoutNum(ptr noundef %0) #3 {
  %2 = alloca ptr, align 8
  store ptr %0, ptr %2, align 8, !tbaa !48
  %3 = load ptr, ptr %2, align 8, !tbaa !48
  %4 = getelementptr inbounds nuw %struct.Abc_Obj_t_, ptr %3, i32 0, i32 5
  %5 = getelementptr inbounds nuw %struct.Vec_Int_t_, ptr %4, i32 0, i32 1
  %6 = load i32, ptr %5, align 4, !tbaa !76
  ret i32 %6
}

; Function Attrs: inlinehint nounwind uwtable
define internal ptr @Abc_NtkCi(ptr noundef %0, i32 noundef %1) #3 {
  %3 = alloca ptr, align 8
  %4 = alloca i32, align 4
  store ptr %0, ptr %3, align 8, !tbaa !3
  store i32 %1, ptr %4, align 4, !tbaa !10
  %5 = load ptr, ptr %3, align 8, !tbaa !3
  %6 = getelementptr inbounds nuw %struct.Abc_Ntk_t_, ptr %5, i32 0, i32 8
  %7 = load ptr, ptr %6, align 8, !tbaa !246
  %8 = load i32, ptr %4, align 4, !tbaa !10
  %9 = call ptr @Vec_PtrEntry(ptr noundef %7, i32 noundef %8)
  ret ptr %9
}

; Function Attrs: inlinehint nounwind uwtable
define internal i32 @Abc_NtkCiNum(ptr noundef %0) #3 {
  %2 = alloca ptr, align 8
  store ptr %0, ptr %2, align 8, !tbaa !3
  %3 = load ptr, ptr %2, align 8, !tbaa !3
  %4 = getelementptr inbounds nuw %struct.Abc_Ntk_t_, ptr %3, i32 0, i32 8
  %5 = load ptr, ptr %4, align 8, !tbaa !246
  %6 = call i32 @Vec_PtrSize(ptr noundef %5)
  ret i32 %6
}

; Function Attrs: inlinehint nounwind uwtable
define internal i32 @Abc_NtkObjNumMax(ptr noundef %0) #3 {
  %2 = alloca ptr, align 8
  store ptr %0, ptr %2, align 8, !tbaa !3
  %3 = load ptr, ptr %2, align 8, !tbaa !3
  %4 = getelementptr inbounds nuw %struct.Abc_Ntk_t_, ptr %3, i32 0, i32 5
  %5 = load ptr, ptr %4, align 8, !tbaa !47
  %6 = call i32 @Vec_PtrSize(ptr noundef %5)
  ret i32 %6
}

; Function Attrs: nounwind uwtable
define internal ptr @Abc_NtkStartCutManForRewrite(ptr noundef %0) #0 {
  %2 = alloca ptr, align 8
  %3 = alloca ptr, align 8
  %4 = alloca ptr, align 8
  %5 = alloca i32, align 4
  store ptr %0, ptr %2, align 8, !tbaa !3
  call void @llvm.lifetime.start.p0(i64 8, ptr %3) #12
  call void @llvm.lifetime.start.p0(i64 8, ptr %4) #12
  call void @llvm.lifetime.start.p0(i64 4, ptr %5) #12
  %6 = load ptr, ptr @Abc_NtkStartCutManForRewrite.pParams, align 8, !tbaa !58
  call void @llvm.memset.p0.i64(ptr align 4 %6, i8 0, i64 80, i1 false)
  %7 = load ptr, ptr @Abc_NtkStartCutManForRewrite.pParams, align 8, !tbaa !58
  %8 = getelementptr inbounds nuw %struct.Cut_ParamsStruct_t_, ptr %7, i32 0, i32 0
  store i32 4, ptr %8, align 4, !tbaa !60
  %9 = load ptr, ptr @Abc_NtkStartCutManForRewrite.pParams, align 8, !tbaa !58
  %10 = getelementptr inbounds nuw %struct.Cut_ParamsStruct_t_, ptr %9, i32 0, i32 1
  store i32 250, ptr %10, align 4, !tbaa !62
  %11 = load ptr, ptr @Abc_NtkStartCutManForRewrite.pParams, align 8, !tbaa !58
  %12 = getelementptr inbounds nuw %struct.Cut_ParamsStruct_t_, ptr %11, i32 0, i32 5
  store i32 1, ptr %12, align 4, !tbaa !63
  %13 = load ptr, ptr @Abc_NtkStartCutManForRewrite.pParams, align 8, !tbaa !58
  %14 = getelementptr inbounds nuw %struct.Cut_ParamsStruct_t_, ptr %13, i32 0, i32 6
  store i32 1, ptr %14, align 4, !tbaa !64
  %15 = load ptr, ptr @Abc_NtkStartCutManForRewrite.pParams, align 8, !tbaa !58
  %16 = getelementptr inbounds nuw %struct.Cut_ParamsStruct_t_, ptr %15, i32 0, i32 7
  store i32 0, ptr %16, align 4, !tbaa !65
  %17 = load ptr, ptr @Abc_NtkStartCutManForRewrite.pParams, align 8, !tbaa !58
  %18 = getelementptr inbounds nuw %struct.Cut_ParamsStruct_t_, ptr %17, i32 0, i32 8
  store i32 0, ptr %18, align 4, !tbaa !66
  %19 = load ptr, ptr @Abc_NtkStartCutManForRewrite.pParams, align 8, !tbaa !58
  %20 = getelementptr inbounds nuw %struct.Cut_ParamsStruct_t_, ptr %19, i32 0, i32 19
  store i32 0, ptr %20, align 4, !tbaa !67
  %21 = load ptr, ptr %2, align 8, !tbaa !3
  %22 = call i32 @Abc_NtkObjNumMax(ptr noundef %21)
  %23 = load ptr, ptr @Abc_NtkStartCutManForRewrite.pParams, align 8, !tbaa !58
  %24 = getelementptr inbounds nuw %struct.Cut_ParamsStruct_t_, ptr %23, i32 0, i32 2
  store i32 %22, ptr %24, align 4, !tbaa !68
  %25 = load ptr, ptr @Abc_NtkStartCutManForRewrite.pParams, align 8, !tbaa !58
  %26 = call ptr @Cut_ManStart(ptr noundef %25)
  store ptr %26, ptr %3, align 8, !tbaa !32
  %27 = load ptr, ptr @Abc_NtkStartCutManForRewrite.pParams, align 8, !tbaa !58
  %28 = getelementptr inbounds nuw %struct.Cut_ParamsStruct_t_, ptr %27, i32 0, i32 8
  %29 = load i32, ptr %28, align 4, !tbaa !66
  %30 = icmp ne i32 %29, 0
  br i1 %30, label %31, label %35

31:                                               ; preds = %1
  %32 = load ptr, ptr %3, align 8, !tbaa !32
  %33 = load ptr, ptr %2, align 8, !tbaa !3
  %34 = call ptr @Abc_NtkFanoutCounts(ptr noundef %33)
  call void @Cut_ManSetFanoutCounts(ptr noundef %32, ptr noundef %34)
  br label %35

35:                                               ; preds = %31, %1
  store i32 0, ptr %5, align 4, !tbaa !10
  br label %36

36:                                               ; preds = %57, %35
  %37 = load i32, ptr %5, align 4, !tbaa !10
  %38 = load ptr, ptr %2, align 8, !tbaa !3
  %39 = call i32 @Abc_NtkCiNum(ptr noundef %38)
  %40 = icmp slt i32 %37, %39
  br i1 %40, label %41, label %45

41:                                               ; preds = %36
  %42 = load ptr, ptr %2, align 8, !tbaa !3
  %43 = load i32, ptr %5, align 4, !tbaa !10
  %44 = call ptr @Abc_NtkCi(ptr noundef %42, i32 noundef %43)
  store ptr %44, ptr %4, align 8, !tbaa !48
  br label %45

45:                                               ; preds = %41, %36
  %46 = phi i1 [ false, %36 ], [ true, %41 ]
  br i1 %46, label %47, label %60

47:                                               ; preds = %45
  %48 = load ptr, ptr %4, align 8, !tbaa !48
  %49 = call i32 @Abc_ObjFanoutNum(ptr noundef %48)
  %50 = icmp sgt i32 %49, 0
  br i1 %50, label %51, label %56

51:                                               ; preds = %47
  %52 = load ptr, ptr %3, align 8, !tbaa !32
  %53 = load ptr, ptr %4, align 8, !tbaa !48
  %54 = getelementptr inbounds nuw %struct.Abc_Obj_t_, ptr %53, i32 0, i32 2
  %55 = load i32, ptr %54, align 8, !tbaa !50
  call void @Cut_NodeSetTriv(ptr noundef %52, i32 noundef %55)
  br label %56

56:                                               ; preds = %51, %47
  br label %57

57:                                               ; preds = %56
  %58 = load i32, ptr %5, align 4, !tbaa !10
  %59 = add nsw i32 %58, 1
  store i32 %59, ptr %5, align 4, !tbaa !10
  br label %36, !llvm.loop !69

60:                                               ; preds = %45
  %61 = load ptr, ptr %3, align 8, !tbaa !32
  call void @llvm.lifetime.end.p0(i64 4, ptr %5) #12
  call void @llvm.lifetime.end.p0(i64 8, ptr %4) #12
  call void @llvm.lifetime.end.p0(i64 8, ptr %3) #12
  ret ptr %61
}