; Function Attrs: nounwind uwtable
define internal fastcc ptr @Abc_NtkStartCutManForRewrite(ptr noundef %0) unnamed_addr #0 {
  tail call void @llvm.memset.p0.i64(ptr noundef nonnull align 4 dereferenceable(80) getelementptr inbounds nuw (i8, ptr @Abc_NtkStartCutManForRewrite.Params, i64 8), i8 0, i64 68, i1 false)
  store i32 4, ptr @Abc_NtkStartCutManForRewrite.Params, align 4, !tbaa !55
  store i32 250, ptr getelementptr inbounds nuw (i8, ptr @Abc_NtkStartCutManForRewrite.Params, i64 4), align 4, !tbaa !57
  store i32 1, ptr getelementptr inbounds nuw (i8, ptr @Abc_NtkStartCutManForRewrite.Params, i64 20), align 4, !tbaa !58
  store i32 1, ptr getelementptr inbounds nuw (i8, ptr @Abc_NtkStartCutManForRewrite.Params, i64 24), align 4, !tbaa !59
  store i32 0, ptr getelementptr inbounds nuw (i8, ptr @Abc_NtkStartCutManForRewrite.Params, i64 32), align 4, !tbaa !60
  store i32 0, ptr getelementptr inbounds nuw (i8, ptr @Abc_NtkStartCutManForRewrite.Params, i64 76), align 4, !tbaa !61
  %2 = getelementptr i8, ptr %0, i64 32
  %.val = load ptr, ptr %2, align 8, !tbaa !37
  %3 = getelementptr i8, ptr %.val, i64 4
  %.val.val = load i32, ptr %3, align 4, !tbaa !38
  store i32 %.val.val, ptr getelementptr inbounds nuw (i8, ptr @Abc_NtkStartCutManForRewrite.Params, i64 8), align 4, !tbaa !62
  %4 = tail call ptr @Cut_ManStart(ptr noundef nonnull @Abc_NtkStartCutManForRewrite.Params) #22
  %5 = load i32, ptr getelementptr inbounds nuw (i8, ptr @Abc_NtkStartCutManForRewrite.Params, i64 32), align 4, !tbaa !60
  %.not = icmp eq i32 %5, 0
  br i1 %.not, label %8, label %6

6:                                                ; preds = %1
  %7 = tail call ptr @Abc_NtkFanoutCounts(ptr noundef nonnull %0) #22
  tail call void @Cut_ManSetFanoutCounts(ptr noundef %4, ptr noundef %7) #22
  br label %8

8:                                                ; preds = %6, %1
  %9 = getelementptr i8, ptr %0, i64 56
  %.val1114 = load ptr, ptr %9, align 8, !tbaa !63
  %10 = getelementptr i8, ptr %.val1114, i64 4
  %.val11.val15 = load i32, ptr %10, align 4, !tbaa !38
  %11 = icmp sgt i32 %.val11.val15, 0
  br i1 %11, label %.lr.ph, label %.critedge

.lr.ph:                                           ; preds = %8, %20
  %.val1119 = phi ptr [ %.val11, %20 ], [ %.val1114, %8 ]
  %indvars.iv = phi i64 [ %indvars.iv.next, %20 ], [ 0, %8 ]
  %12 = getelementptr i8, ptr %.val1119, i64 8
  %.val12.val = load ptr, ptr %12, align 8, !tbaa !46
  %13 = getelementptr inbounds nuw ptr, ptr %.val12.val, i64 %indvars.iv
  %14 = load ptr, ptr %13, align 8, !tbaa !47
  %15 = getelementptr i8, ptr %14, i64 44
  %.val13 = load i32, ptr %15, align 4, !tbaa !51
  %16 = icmp sgt i32 %.val13, 0
  br i1 %16, label %17, label %20

17:                                               ; preds = %.lr.ph
  %18 = getelementptr inbounds nuw i8, ptr %14, i64 16
  %19 = load i32, ptr %18, align 8, !tbaa !48
  tail call void @Cut_NodeSetTriv(ptr noundef %4, i32 noundef %19) #22
  %.val11.pre = load ptr, ptr %9, align 8, !tbaa !63
  br label %20

20:                                               ; preds = %.lr.ph, %17
  %.val11 = phi ptr [ %.val1119, %.lr.ph ], [ %.val11.pre, %17 ]
  %indvars.iv.next = add nuw nsw i64 %indvars.iv, 1
  %21 = getelementptr i8, ptr %.val11, i64 4
  %.val11.val = load i32, ptr %21, align 4, !tbaa !38
  %22 = sext i32 %.val11.val to i64
  %23 = icmp slt i64 %indvars.iv.next, %22
  br i1 %23, label %.lr.ph, label %.critedge, !llvm.loop !64

.critedge:                                        ; preds = %20, %8
  ret ptr %4
}